; Function Attrs: null_pointer_is_valid sspstrong uwtable
define noundef ptr @stnode_new(i32 noundef %0, ptr noundef %1, ptr noundef %2, i64 %3, i64 %4) local_unnamed_addr #0 {
  %6 = tail call noalias dereferenceable_or_null(64) ptr @g_malloc0(i64 noundef 64) #14
  %7 = getelementptr inbounds nuw i8, ptr %6, i64 24
  %8 = getelementptr inbounds nuw i8, ptr %6, i64 16
  tail call void @llvm.memset.p0.i64(ptr noundef nonnull align 8 dereferenceable(16) %7, i8 0, i64 16, i1 false)
  store ptr %2, ptr %8, align 8
  %9 = getelementptr inbounds nuw i8, ptr %6, i64 40
  store i64 %3, ptr %9, align 8
  %.sroa.2.0..sroa_idx.i = getelementptr inbounds nuw i8, ptr %6, i64 48
  store i64 %4, ptr %.sroa.2.0..sroa_idx.i, align 8
  %10 = getelementptr inbounds nuw i8, ptr %6, i64 56
  store i16 0, ptr %10, align 8
  %11 = icmp eq i32 %0, 0
  br i1 %11, label %12, label %13

12:                                               ; preds = %5
  tail call void @llvm.memset.p0.i64(ptr noundef align 8 dereferenceable(16) %6, i8 0, i64 16, i1 false)
  br label %stnode_init.exit

13:                                               ; preds = %5
  %14 = zext i32 %0 to i64
  %15 = getelementptr [15 x ptr], ptr @type_list, i64 0, i64 %14
  %16 = load ptr, ptr %15, align 8
  store ptr %16, ptr %6, align 8
  %17 = getelementptr inbounds nuw i8, ptr %16, i64 8
  %18 = load ptr, ptr %17, align 8
  %.not.i = icmp eq ptr %18, null
  br i1 %.not.i, label %22, label %19

19:                                               ; preds = %13
  %20 = tail call ptr %18(ptr noundef %1)
  %21 = getelementptr inbounds nuw i8, ptr %6, i64 8
  store ptr %20, ptr %21, align 8
  br label %stnode_init.exit

22:                                               ; preds = %13
  %23 = getelementptr inbounds nuw i8, ptr %6, i64 8
  store ptr %1, ptr %23, align 8
  br label %stnode_init.exit

stnode_init.exit:                                 ; preds = %12, %19, %22
  ret ptr %6
}